; ModuleID = '16/421.c'
source_filename = "16/421.c"
target datalayout = "e-m:e-p270:32:32-p271:32:32-p272:64:64-i64:64-f80:128-n8:16:32:64-S128"
target triple = "x86_64-pc-linux-gnu"

@.str = private unnamed_addr constant [3 x i8] c"%d\00", align 1

; Function Attrs: noinline nounwind uwtable
define dso_local i32 @main() #0 {
  %1 = alloca i32, align 4
  %2 = alloca i32, align 4
  %3 = alloca i32, align 4
  %4 = alloca i32, align 4
  %5 = alloca i32, align 4
  %6 = alloca i32, align 4
  %7 = alloca i32, align 4
  %8 = alloca i32, align 4
  store i32 0, i32* %1, align 4
  %9 = call i32 (i8*, ...) @__isoc99_scanf(i8* getelementptr inbounds ([3 x i8], [3 x i8]* @.str, i64 0, i64 0), i32* %2)
  %10 = load i32, i32* %2, align 4
  %11 = sitofp i32 %10 to double
  %12 = call double @log10(double %11) #3
  %13 = fadd double 1.000000e+00, %12
  %14 = fptosi double %13 to i32
  store i32 %14, i32* %8, align 4
  %15 = load i32, i32* %2, align 4
  %16 = sdiv i32 %15, 10000
  store i32 %16, i32* %3, align 4
  %17 = load i32, i32* %2, align 4
  %18 = srem i32 %17, 10000
  store i32 %18, i32* %2, align 4
  %19 = load i32, i32* %2, align 4
  %20 = sdiv i32 %19, 1000
  store i32 %20, i32* %4, align 4
  %21 = load i32, i32* %2, align 4
  %22 = srem i32 %21, 1000
  store i32 %22, i32* %2, align 4
  %23 = load i32, i32* %2, align 4
  %24 = sdiv i32 %23, 100
  store i32 %24, i32* %5, align 4
  %25 = load i32, i32* %2, align 4
  %26 = srem i32 %25, 100
  store i32 %26, i32* %2, align 4
  %27 = load i32, i32* %2, align 4
  %28 = sdiv i32 %27, 10
  store i32 %28, i32* %6, align 4
  %29 = load i32, i32* %2, align 4
  %30 = srem i32 %29, 10
  store i32 %30, i32* %2, align 4
  %31 = load i32, i32* %2, align 4
  store i32 %31, i32* %7, align 4
  %32 = load i32, i32* %7, align 4
  %33 = call i32 (i8*, ...) @printf(i8* getelementptr inbounds ([3 x i8], [3 x i8]* @.str, i64 0, i64 0), i32 %32)
  %34 = load i32, i32* %8, align 4
  %35 = icmp sgt i32 %34, 1
  br i1 %35, label %36, label %39

36:                                               ; preds = %0
  %37 = load i32, i32* %6, align 4
  %38 = call i32 (i8*, ...) @printf(i8* getelementptr inbounds ([3 x i8], [3 x i8]* @.str, i64 0, i64 0), i32 %37)
  br label %39

39:                                               ; preds = %36, %0
  %40 = load i32, i32* %8, align 4
  %41 = icmp sgt i32 %40, 2
  br i1 %41, label %42, label %45

42:                                               ; preds = %39
  %43 = load i32, i32* %5, align 4
  %44 = call i32 (i8*, ...) @printf(i8* getelementptr inbounds ([3 x i8], [3 x i8]* @.str, i64 0, i64 0), i32 %43)
  br label %45

45:                                               ; preds = %42, %39
  %46 = load i32, i32* %8, align 4
  %47 = icmp sgt i32 %46, 3
  br i1 %47, label %48, label %51

48:                                               ; preds = %45
  %49 = load i32, i32* %4, align 4
  %50 = call i32 (i8*, ...) @printf(i8* getelementptr inbounds ([3 x i8], [3 x i8]* @.str, i64 0, i64 0), i32 %49)
  br label %51

51:                                               ; preds = %48, %45
  %52 = load i32, i32* %8, align 4
  %53 = icmp sgt i32 %52, 4
  br i1 %53, label %54, label %57

54:                                               ; preds = %51
  %55 = load i32, i32* %3, align 4
  %56 = call i32 (i8*, ...) @printf(i8* getelementptr inbounds ([3 x i8], [3 x i8]* @.str, i64 0, i64 0), i32 %55)
  br label %57

57:                                               ; preds = %54, %51
  ret i32 0
}

declare dso_local i32 @__isoc99_scanf(i8*, ...) #1

; Function Attrs: nounwind
declare dso_local double @log10(double) #2

declare dso_local i32 @printf(i8*, ...) #1


!llvm.module.flags = !{!0}
!llvm.ident = !{!1}

!0 = !{i32 1, !"wchar_size", i32 4}
!1 = !{!"clang version 10.0.0-4ubuntu1 "}
